Certificate:
    Data:
        Version: 3 (0x2)
        Serial Number:
            cb:8f:db:ea:a4:25:17:8f:d2:10:e2:26:cf:07:e9:0a
        Signature Algorithm: sha256WithRSAEncryption
        Issuer: CN=Easy-RSA CA
        Validity
            Not Before: Mar 14 22:19:28 2025 GMT
            Not After : Feb 27 22:19:28 2028 GMT
        Subject: CN=sudo ./easyrsa sign-req client client1\x0D
        Subject Public Key Info:
            Public Key Algorithm: rsaEncryption
                RSA Public-Key: (2048 bit)
                Modulus:
                    00:dc:46:09:7d:81:fd:ab:36:74:13:2b:eb:c6:17:
                    db:27:31:77:cd:86:cd:21:e7:5b:9b:7f:66:4f:f8:
                    2e:b7:8f:5e:29:94:03:b6:d6:9f:da:e7:08:b3:84:
                    f2:4b:73:fe:ee:d8:86:44:e4:e3:b5:76:c2:f6:6a:
                    a0:f2:54:31:6b:a0:b3:f2:f9:e8:b8:54:58:c1:c3:
                    17:59:73:0e:2d:b3:cb:11:34:af:db:35:27:25:38:
                    e3:90:03:ee:91:ac:18:a2:07:fc:b5:d1:a8:27:37:
                    be:0d:07:59:46:40:b6:a1:53:7f:70:04:a7:84:16:
                    be:5b:11:0a:0f:6f:5e:f8:a6:2e:da:d9:8c:3e:a4:
                    86:b8:a3:a7:1e:a2:64:ee:de:d1:3b:14:e4:42:bb:
                    1d:d3:e5:35:33:8a:5d:fe:45:24:cf:a9:58:51:3f:
                    7d:bd:d3:2e:d5:e8:6c:18:77:53:8d:f3:05:6b:a5:
                    13:e1:fd:fd:b2:f8:16:45:33:1e:9d:03:d7:73:1d:
                    f9:b2:f6:1d:b8:b5:0e:f6:4a:bd:09:05:7a:0c:05:
                    b8:46:40:2b:8e:06:92:21:4a:a5:1d:f0:d5:71:c2:
                    06:94:64:f5:87:1a:9f:68:26:ed:3b:f7:50:50:37:
                    23:b6:b3:f0:e3:46:40:f7:83:aa:28:46:e0:4a:94:
                    a0:91
                Exponent: 65537 (0x10001)
        X509v3 extensions:
            X509v3 Basic Constraints: 
                CA:FALSE
            X509v3 Subject Key Identifier: 
                B1:28:5B:57:5A:06:6E:78:97:B2:50:2F:EA:13:3B:76:D7:B9:C6:26
            X509v3 Authority Key Identifier: 
                keyid:0D:33:21:0B:E3:DE:53:62:8C:37:22:28:91:EA:07:85:93:9A:87:23
                DirName:/CN=Easy-RSA CA
                serial:72:16:00:7C:83:A2:14:32:5E:15:41:D6:86:6B:47:8D:3E:40:03:2D

            X509v3 Extended Key Usage: 
                TLS Web Client Authentication
            X509v3 Key Usage: 
                Digital Signature
    Signature Algorithm: sha256WithRSAEncryption
         97:79:aa:92:0a:78:b6:a8:02:62:71:37:42:12:3f:2e:25:ea:
         e0:20:02:ee:4c:04:90:6b:64:bf:b0:ae:99:20:ba:fb:1f:99:
         00:6f:b9:f0:b6:30:78:7f:14:4e:45:13:2f:7c:56:a1:94:19:
         44:b3:3e:fd:8c:d7:f5:57:69:be:82:da:89:c9:96:f7:44:8e:
         ff:03:c3:86:56:4b:76:b5:71:95:07:80:57:d4:4f:23:89:be:
         84:f4:27:16:b6:e9:d7:fa:7d:13:c4:b7:3e:df:4f:62:f8:ff:
         8f:f2:d9:11:c3:38:fa:8b:95:d1:fc:ec:7d:ec:2d:b1:31:7a:
         00:3e:93:5d:e6:25:b2:dd:65:00:1e:0f:55:49:b7:2b:dd:02:
         d3:b3:f1:2f:43:21:01:7d:01:bb:b3:f0:0e:a9:fd:3b:9d:0e:
         3d:c3:f1:3f:df:ab:f1:5f:1b:1e:9b:65:ee:3c:6e:6c:51:41:
         1f:83:fe:90:3c:68:c9:66:8f:d4:a2:2d:7a:94:47:b7:c7:f0:
         56:fc:eb:1d:3f:eb:46:ef:98:1f:ac:83:c2:6c:c9:50:e8:65:
         f9:51:21:bd:47:67:d6:b8:90:eb:41:69:96:93:cd:90:e6:9c:
         7f:ca:7e:01:e4:25:64:a9:6d:32:3a:38:d2:52:f5:3a:4b:e2:
         ba:d3:fc:6f
-----BEGIN CERTIFICATE-----
MIIDdjCCAl6gAwIBAgIRAMuP2+qkJReP0hDiJs8H6QowDQYJKoZIhvcNAQELBQAw
FjEUMBIGA1UEAwwLRWFzeS1SU0EgQ0EwHhcNMjUwMzE0MjIxOTI4WhcNMjgwMjI3
MjIxOTI4WjAyMTAwLgYDVQQDDCdzdWRvIC4vZWFzeXJzYSBzaWduLXJlcSBjbGll
bnQgY2xpZW50MQ0wggEiMA0GCSqGSIb3DQEBAQUAA4IBDwAwggEKAoIBAQDcRgl9
gf2rNnQTK+vGF9snMXfNhs0h51ubf2ZP+C63j14plAO21p/a5wizhPJLc/7u2IZE
5OO1dsL2aqDyVDFroLPy+ei4VFjBwxdZcw4ts8sRNK/bNSclOOOQA+6RrBiiB/y1
0agnN74NB1lGQLahU39wBKeEFr5bEQoPb174pi7a2Yw+pIa4o6ceomTu3tE7FORC
ux3T5TUzil3+RSTPqVhRP3290y7V6GwYd1ON8wVrpRPh/f2y+BZFMx6dA9dzHfmy
9h24tQ72Sr0JBXoMBbhGQCuOBpIhSqUd8NVxwgaUZPWHGp9oJu0791BQNyO2s/Dj
RkD3g6ooRuBKlKCRAgMBAAGjgaIwgZ8wCQYDVR0TBAIwADAdBgNVHQ4EFgQUsShb
V1oGbniXslAv6hM7dte5xiYwUQYDVR0jBEowSIAUDTMhC+PeU2KMNyIokeoHhZOa
hyOhGqQYMBYxFDASBgNVBAMMC0Vhc3ktUlNBIENBghRyFgB8g6IUMl4VQdaGa0eN
PkADLTATBgNVHSUEDDAKBggrBgEFBQcDAjALBgNVHQ8EBAMCB4AwDQYJKoZIhvcN
AQELBQADggEBAJd5qpIKeLaoAmJxN0ISPy4l6uAgAu5MBJBrZL+wrpkguvsfmQBv
ufC2MHh/FE5FEy98VqGUGUSzPv2M1/VXab6C2onJlvdEjv8Dw4ZWS3a1cZUHgFfU
TyOJvoT0Jxa26df6fRPEtz7fT2L4/4/y2RHDOPqLldH87H3sLbExegA+k13mJbLd
ZQAeD1VJtyvdAtOz8S9DIQF9Abuz8A6p/TudDj3D8T/fq/FfGx6bZe48bmxRQR+D
/pA8aMlmj9SiLXqUR7fH8Fb86x0/60bvmB+sg8JsyVDoZflRIb1HZ9a4kOtBaZaT
zZDmnH/KfgHkJWSpbTI6ONJS9TpL4rrT/G8=
-----END CERTIFICATE-----
