Certificate:
    Data:
        Version: 3 (0x2)
        Serial Number:
            d7:92:08:02:10:da:f9:02:2a:f9:6d:c6:47:d8:d4:db
        Signature Algorithm: sha256WithRSAEncryption
        Issuer: CN=Easy-RSA CA
        Validity
            Not Before: Mar 14 22:19:45 2025 GMT
            Not After : Feb 27 22:19:45 2028 GMT
        Subject: CN=sudo ./easyrsa sign-req client client2\x0D
        Subject Public Key Info:
            Public Key Algorithm: rsaEncryption
                RSA Public-Key: (2048 bit)
                Modulus:
                    00:ef:55:9d:73:1f:f2:2f:71:79:32:75:85:7f:99:
                    fb:35:88:10:0a:e4:69:8b:d9:cd:42:30:7a:bc:e4:
                    5d:5b:e2:a6:b2:6a:44:08:64:c9:ee:d1:99:9a:35:
                    30:06:c6:1d:b9:d6:65:eb:50:2f:09:5d:98:82:00:
                    7e:9e:59:62:30:db:54:a7:6f:e0:e4:35:99:0c:43:
                    da:9f:06:19:25:58:98:3c:4c:c1:36:98:60:69:10:
                    ef:97:99:a5:22:12:35:ab:72:f8:20:02:4c:f6:04:
                    ea:88:33:66:9a:b3:4d:1f:81:b8:47:09:87:99:0e:
                    5b:2f:ef:49:dc:6d:9a:43:79:14:7d:54:09:a9:4c:
                    a2:dc:15:7a:73:5d:6a:cc:c2:99:20:4b:d8:ac:ee:
                    11:aa:d8:a3:33:da:c2:16:de:8f:29:be:70:ea:e8:
                    7d:b1:33:f7:9f:44:82:5e:b7:e0:13:31:d3:83:da:
                    36:86:7b:34:53:fd:79:ab:cc:66:69:b0:1a:7f:b7:
                    e0:df:b3:2f:58:68:f5:62:db:67:53:ef:f0:f2:75:
                    db:eb:3b:ee:68:bc:dc:1e:26:66:aa:45:a8:3e:df:
                    69:ee:04:d3:06:c8:bd:00:e2:b5:4a:c0:dc:b3:fb:
                    58:c7:54:62:d8:28:f5:55:86:eb:4a:40:db:d1:b5:
                    8e:c5
                Exponent: 65537 (0x10001)
        X509v3 extensions:
            X509v3 Basic Constraints: 
                CA:FALSE
            X509v3 Subject Key Identifier: 
                1D:B4:95:53:06:D8:E2:06:21:D7:8F:83:54:25:27:7F:F6:5E:4B:9B
            X509v3 Authority Key Identifier: 
                keyid:0D:33:21:0B:E3:DE:53:62:8C:37:22:28:91:EA:07:85:93:9A:87:23
                DirName:/CN=Easy-RSA CA
                serial:72:16:00:7C:83:A2:14:32:5E:15:41:D6:86:6B:47:8D:3E:40:03:2D

            X509v3 Extended Key Usage: 
                TLS Web Client Authentication
            X509v3 Key Usage: 
                Digital Signature
    Signature Algorithm: sha256WithRSAEncryption
         ae:04:ed:39:7d:5d:d8:1d:72:5f:a9:a8:aa:aa:93:6e:45:a1:
         77:67:4a:da:67:93:ed:bb:09:11:8b:fb:27:9f:61:c4:dd:41:
         69:36:5c:09:41:31:16:9e:be:fe:cb:af:e4:12:b7:5e:1a:df:
         b4:a3:02:e2:2b:35:fc:9f:fb:46:c6:b5:d1:05:2a:0d:62:6d:
         e0:b7:5d:d0:8d:6f:af:3a:39:e1:f0:cc:29:3a:c1:3a:c1:ab:
         d5:e1:f4:d0:fa:7d:83:15:69:dd:7a:e8:5e:0f:11:5d:ad:01:
         fb:99:4c:2d:37:d1:4f:7b:c1:f2:11:5f:73:d6:0c:39:01:21:
         3a:0d:ef:38:13:de:70:c9:57:3d:7e:e7:cd:39:ce:6a:0e:ec:
         b4:45:12:a8:1c:32:2c:35:68:d3:f4:4a:6a:e2:99:de:2c:f6:
         da:ac:17:2d:57:87:2b:4a:7d:1b:cb:31:2f:80:1d:5a:0a:c0:
         19:52:a0:11:44:25:63:3d:02:61:92:56:60:c6:22:87:a2:3a:
         a8:cd:61:13:9f:5b:18:45:d2:e7:d8:4b:dd:e2:fc:a1:6c:a7:
         0f:72:f6:94:5a:8e:22:37:8a:6e:e1:52:b5:b4:06:ec:22:95:
         45:10:6c:46:29:b2:ad:dc:09:83:2a:0a:d1:82:d0:24:f4:9d:
         aa:4f:19:a9
-----BEGIN CERTIFICATE-----
MIIDdjCCAl6gAwIBAgIRANeSCAIQ2vkCKvltxkfY1NswDQYJKoZIhvcNAQELBQAw
FjEUMBIGA1UEAwwLRWFzeS1SU0EgQ0EwHhcNMjUwMzE0MjIxOTQ1WhcNMjgwMjI3
MjIxOTQ1WjAyMTAwLgYDVQQDDCdzdWRvIC4vZWFzeXJzYSBzaWduLXJlcSBjbGll
bnQgY2xpZW50Mg0wggEiMA0GCSqGSIb3DQEBAQUAA4IBDwAwggEKAoIBAQDvVZ1z
H/IvcXkydYV/mfs1iBAK5GmL2c1CMHq85F1b4qayakQIZMnu0ZmaNTAGxh251mXr
UC8JXZiCAH6eWWIw21Snb+DkNZkMQ9qfBhklWJg8TME2mGBpEO+XmaUiEjWrcvgg
Akz2BOqIM2aas00fgbhHCYeZDlsv70ncbZpDeRR9VAmpTKLcFXpzXWrMwpkgS9is
7hGq2KMz2sIW3o8pvnDq6H2xM/efRIJet+ATMdOD2jaGezRT/XmrzGZpsBp/t+Df
sy9YaPVi22dT7/DyddvrO+5ovNweJmaqRag+32nuBNMGyL0A4rVKwNyz+1jHVGLY
KPVVhutKQNvRtY7FAgMBAAGjgaIwgZ8wCQYDVR0TBAIwADAdBgNVHQ4EFgQUHbSV
UwbY4gYh14+DVCUnf/ZeS5swUQYDVR0jBEowSIAUDTMhC+PeU2KMNyIokeoHhZOa
hyOhGqQYMBYxFDASBgNVBAMMC0Vhc3ktUlNBIENBghRyFgB8g6IUMl4VQdaGa0eN
PkADLTATBgNVHSUEDDAKBggrBgEFBQcDAjALBgNVHQ8EBAMCB4AwDQYJKoZIhvcN
AQELBQADggEBAK4E7Tl9Xdgdcl+pqKqqk25FoXdnStpnk+27CRGL+yefYcTdQWk2
XAlBMRaevv7Lr+QSt14a37SjAuIrNfyf+0bGtdEFKg1ibeC3XdCNb686OeHwzCk6
wTrBq9Xh9ND6fYMVad166F4PEV2tAfuZTC030U97wfIRX3PWDDkBIToN7zgT3nDJ
Vz1+5805zmoO7LRFEqgcMiw1aNP0Smrimd4s9tqsFy1XhytKfRvLMS+AHVoKwBlS
oBFEJWM9AmGSVmDGIoeiOqjNYROfWxhF0ufYS93i/KFspw9y9pRajiI3im7hUrW0
BuwilUUQbEYpsq3cCYMqCtGC0CT0napPGak=
-----END CERTIFICATE-----
